; Function Attrs: mustprogress nounwind uwtable
define hidden void @_ZN3vas2ot25ZeroTermImagelessTrackletD2Ev(ptr noundef nonnull align 8 captures(none) dereferenceable(264) initializes((0, 8)) %0) unnamed_addr #1 align 2 personality ptr @__gxx_personality_v0 {
  store ptr getelementptr inbounds nuw inrange(-16, 40) (i8, ptr @_ZTVN3vas2ot25ZeroTermImagelessTrackletE, i64 16), ptr %0, align 8, !tbaa !3
  %2 = getelementptr inbounds nuw i8, ptr %0, i64 256
  %3 = load ptr, ptr %2, align 8, !tbaa !84
  %.not.i = icmp eq ptr %3, null
  br i1 %.not.i, label %_ZNSt10unique_ptrIN3vas20KalmanFilterNoOpencvESt14default_deleteIS1_EED2Ev.exit, label %_ZNKSt14default_deleteIN3vas20KalmanFilterNoOpencvEEclEPS1_.exit.i

_ZNKSt14default_deleteIN3vas20KalmanFilterNoOpencvEEclEPS1_.exit.i: ; preds = %1
  tail call void @_ZdlPv(ptr noundef nonnull %3) #18
  br label %_ZNSt10unique_ptrIN3vas20KalmanFilterNoOpencvESt14default_deleteIS1_EED2Ev.exit

_ZNSt10unique_ptrIN3vas20KalmanFilterNoOpencvESt14default_deleteIS1_EED2Ev.exit: ; preds = %1, %_ZNKSt14default_deleteIN3vas20KalmanFilterNoOpencvEEclEPS1_.exit.i
  store ptr null, ptr %2, align 8, !tbaa !84
  tail call void @_ZN3vas2ot8TrackletD2Ev(ptr noundef nonnull align 8 dereferenceable(248) %0) #17
  ret void
}